; ModuleID = 'source-C-CXX/20/2071.c'
source_filename = "source-C-CXX/20/2071.c"
target datalayout = "e-m:e-p270:32:32-p271:32:32-p272:64:64-i64:64-f80:128-n8:16:32:64-S128"
target triple = "x86_64-pc-linux-gnu"

@.str = private unnamed_addr constant [3 x i8] c"%d\00", align 1
@.str.1 = private unnamed_addr constant [6 x i8] c"%d,%d\00", align 1

; Function Attrs: nofree nounwind sspstrong uwtable
define dso_local void @main() local_unnamed_addr #0 {
  %1 = alloca i32, align 4
  %2 = alloca [301 x i32], align 16
  %3 = bitcast i32* %1 to i8*
  call void @llvm.lifetime.start.p0i8(i64 4, i8* nonnull %3) #4
  %4 = bitcast [301 x i32]* %2 to i8*
  call void @llvm.lifetime.start.p0i8(i64 1204, i8* nonnull %4) #4
  call void @llvm.memset.p0i8.i64(i8* noundef nonnull align 16 dereferenceable(1204) %4, i8 0, i64 1204, i1 false)
  %5 = call i32 (i8*, ...) @__isoc99_scanf(i8* getelementptr inbounds ([3 x i8], [3 x i8]* @.str, i64 0, i64 0), i32* nonnull %1)
  %6 = getelementptr inbounds [301 x i32], [301 x i32]* %2, i64 0, i64 0
  %7 = call i32 (i8*, ...) @__isoc99_scanf(i8* getelementptr inbounds ([3 x i8], [3 x i8]* @.str, i64 0, i64 0), i32* nonnull %6)
  %8 = load i32, i32* %6, align 16, !tbaa !5
  %9 = load i32, i32* %1, align 4, !tbaa !5
  %10 = icmp sgt i32 %9, 1
  br i1 %10, label %11, label %29

11:                                               ; preds = %0, %11
  %12 = phi i64 [ %25, %11 ], [ 1, %0 ]
  %13 = phi i32 [ %24, %11 ], [ %8, %0 ]
  %14 = phi i32 [ %23, %11 ], [ %8, %0 ]
  %15 = phi i32 [ %19, %11 ], [ %8, %0 ]
  %16 = getelementptr inbounds [301 x i32], [301 x i32]* %2, i64 0, i64 %12
  %17 = call i32 (i8*, ...) @__isoc99_scanf(i8* getelementptr inbounds ([3 x i8], [3 x i8]* @.str, i64 0, i64 0), i32* nonnull %16)
  %18 = load i32, i32* %16, align 4, !tbaa !5
  %19 = add nsw i32 %18, %15
  %20 = icmp sgt i32 %18, %14
  %21 = icmp slt i32 %18, %13
  %22 = select i1 %21, i32 %18, i32 %13
  %23 = select i1 %20, i32 %18, i32 %14
  %24 = select i1 %20, i32 %13, i32 %22
  %25 = add nuw nsw i64 %12, 1
  %26 = load i32, i32* %1, align 4, !tbaa !5
  %27 = sext i32 %26 to i64
  %28 = icmp slt i64 %25, %27
  br i1 %28, label %11, label %29, !llvm.loop !9

29:                                               ; preds = %11, %0
  %30 = phi i32 [ %8, %0 ], [ %19, %11 ]
  %31 = phi i32 [ %8, %0 ], [ %23, %11 ]
  %32 = phi i32 [ %8, %0 ], [ %24, %11 ]
  %33 = phi i32 [ %9, %0 ], [ %26, %11 ]
  %34 = mul nsw i32 %33, %31
  %35 = sub nsw i32 %34, %30
  %36 = mul nsw i32 %33, %32
  %37 = sub i32 %36, %30
  %38 = add i32 %37, %35
  %39 = icmp sgt i32 %38, 0
  br i1 %39, label %40, label %42

40:                                               ; preds = %29
  %41 = call i32 (i8*, ...) @printf(i8* nonnull dereferenceable(1) getelementptr inbounds ([3 x i8], [3 x i8]* @.str, i64 0, i64 0), i32 %31)
  br label %48

42:                                               ; preds = %29
  %43 = icmp eq i32 %38, 0
  br i1 %43, label %44, label %46

44:                                               ; preds = %42
  %45 = call i32 (i8*, ...) @printf(i8* nonnull dereferenceable(1) getelementptr inbounds ([6 x i8], [6 x i8]* @.str.1, i64 0, i64 0), i32 %32, i32 %31)
  br label %48

46:                                               ; preds = %42
  %47 = call i32 (i8*, ...) @printf(i8* nonnull dereferenceable(1) getelementptr inbounds ([3 x i8], [3 x i8]* @.str, i64 0, i64 0), i32 %32)
  br label %48

48:                                               ; preds = %44, %46, %40
  call void @llvm.lifetime.end.p0i8(i64 1204, i8* nonnull %4) #4
  call void @llvm.lifetime.end.p0i8(i64 4, i8* nonnull %3) #4
  ret void
}

; Function Attrs: argmemonly mustprogress nofree nosync nounwind willreturn
declare void @llvm.lifetime.start.p0i8(i64 immarg, i8* nocapture) #1

; Function Attrs: argmemonly mustprogress nofree nounwind willreturn writeonly
declare void @llvm.memset.p0i8.i64(i8* nocapture writeonly, i8, i64, i1 immarg) #2

; Function Attrs: nofree nounwind
declare noundef i32 @__isoc99_scanf(i8* nocapture noundef readonly, ...) local_unnamed_addr #3

; Function Attrs: nofree nounwind
declare noundef i32 @printf(i8* nocapture noundef readonly, ...) local_unnamed_addr #3

; Function Attrs: argmemonly mustprogress nofree nosync nounwind willreturn
declare void @llvm.lifetime.end.p0i8(i64 immarg, i8* nocapture) #1


!llvm.module.flags = !{!0, !1, !2, !3}
!llvm.ident = !{!4}

!0 = !{i32 1, !"wchar_size", i32 4}
!1 = !{i32 7, !"PIC Level", i32 2}
!2 = !{i32 7, !"PIE Level", i32 2}
!3 = !{i32 7, !"uwtable", i32 1}
!4 = !{!"clang version 13.0.0"}
!5 = !{!6, !6, i64 0}
!6 = !{!"int", !7, i64 0}
!7 = !{!"omnipotent char", !8, i64 0}
!8 = !{!"Simple C/C++ TBAA"}
!9 = distinct !{!9, !10}
!10 = !{!"llvm.loop.mustprogress"}
